target datalayout = "e-m:e-p270:32:32-p271:32:32-p272:64:64-i64:64-i128:128-f80:128-n8:16:32:64-S128"
target triple = "x86_64-pc-linux-gnu"

%struct._zend_array = type { %struct._zend_refcounted_h, %union.anon.0, i32, %union.anon.1, i32, i32, i32, i32, i64, ptr }
%struct._zend_refcounted_h = type { i32, %union.anon }
%union.anon = type { i32 }
%union.anon.0 = type { i32 }
%union.anon.1 = type { ptr }
%struct._zend_stack = type { i32, i32, i32, ptr }
%struct._zend_executor_globals = type { %struct._zval_struct, %struct._zval_struct, [32 x ptr], ptr, ptr, %struct._zend_array, %struct._zend_array, ptr, i32, i32, ptr, ptr, ptr, ptr, ptr, ptr, i64, ptr, ptr, i32, i32, i64, i32, i32, i32, i8, i8, %struct.zend_atomic_bool_s, %struct.zend_atomic_bool_s, ptr, i64, ptr, ptr, %struct._zend_array, %struct._zend_array, i32, i8, %struct._zval_struct, %struct._zval_struct, %struct._zend_stack, %struct._zend_stack, %struct._zend_stack, ptr, i32, i32, i64, ptr, ptr, ptr, %struct._zend_objects_store, ptr, ptr, ptr, [3 x %struct._zend_op], ptr, i8, i8, i64, i32, i32, ptr, [16 x %struct._HashTableIterator], ptr, %union._zend_function, %struct._zend_op, %struct._zend_array, i64, %struct.zend_get_gc_buffer, ptr, ptr, ptr, i64, i8, i32, ptr, ptr, i64, %struct._zend_call_stack, i64, i64, [6 x ptr] }
%struct.zend_atomic_bool_s = type { i8 }
%struct._zval_struct = type { %union._zend_value, %union.anon.3, %union.anon.6 }
%union._zend_value = type { i64 }
%union.anon.3 = type { i32 }
%union.anon.6 = type { i32 }
%struct._zend_objects_store = type { ptr, i32, i32, i32 }
%struct._HashTableIterator = type { ptr, i32, i32 }
%union._zend_function = type { %struct._zend_op_array }
%struct._zend_op_array = type { i8, [3 x i8], i32, ptr, ptr, ptr, i32, i32, ptr, ptr, ptr, ptr, i32, i32, i32, i32, ptr, ptr, ptr, ptr, ptr, i32, i32, ptr, ptr, ptr, i32, i32, i32, i32, ptr, ptr, [6 x ptr] }
%struct._zend_op = type { ptr, %union._znode_op, %union._znode_op, %union._znode_op, i32, i32, i8, i8, i8, i8 }
%union._znode_op = type { i32 }
%struct.zend_get_gc_buffer = type { ptr, ptr, ptr }
%struct._zend_call_stack = type { ptr, i64 }
%struct._zend_file_handle = type { %union.anon.7, ptr, ptr, i8, i8, i8, ptr, i64 }
%union.anon.7 = type { %struct._zend_stream }
%struct._zend_stream = type { ptr, i32, ptr, ptr, ptr }

@executor_globals = external global %struct._zend_executor_globals, align 8
@zend_compile_file = external global ptr, align 8

; Function Attrs: nounwind uwtable
define ptr @compile_filename(i32 noundef %0, ptr noundef %1) #0 {
  %3 = alloca ptr, align 8
  %4 = alloca ptr, align 8
  %5 = alloca i32, align 4
  %6 = alloca i32, align 4
  %7 = alloca ptr, align 8
  %8 = alloca ptr, align 8
  %9 = alloca i8, align 1
  %10 = alloca i32, align 4
  %11 = alloca ptr, align 8
  %12 = alloca %struct._zend_file_handle, align 8
  %13 = alloca ptr, align 8
  %14 = alloca ptr, align 8
  store i32 %0, ptr %10, align 4
  store ptr %1, ptr %11, align 8
  store ptr null, ptr %14, align 8
  %15 = load ptr, ptr %11, align 8
  call void @zend_stream_init_filename_ex(ptr noundef %12, ptr noundef %15)
  %16 = load ptr, ptr @zend_compile_file, align 8
  %17 = load i32, ptr %10, align 4
  %18 = call ptr %16(ptr noundef %12, i32 noundef %17)
  store ptr %18, ptr %13, align 8
  %19 = load ptr, ptr %13, align 8
  %20 = icmp ne ptr %19, null
  br i1 %20, label %21, label %82

21:                                               ; preds = %2
  %22 = getelementptr inbounds %struct._zend_file_handle, ptr %12, i32 0, i32 0
  %23 = getelementptr inbounds %struct._zend_stream, ptr %22, i32 0, i32 0
  %24 = load ptr, ptr %23, align 8
  %25 = icmp ne ptr %24, null
  br i1 %25, label %26, label %82

26:                                               ; preds = %21
  %27 = getelementptr inbounds %struct._zend_file_handle, ptr %12, i32 0, i32 2
  %28 = load ptr, ptr %27, align 8
  %29 = icmp ne ptr %28, null
  br i1 %29, label %47, label %30

30:                                               ; preds = %26
  %31 = load ptr, ptr %11, align 8
  store ptr %31, ptr %7, align 8
  %32 = load ptr, ptr %7, align 8
  %33 = getelementptr inbounds %struct._zend_refcounted_h, ptr %32, i32 0, i32 1
  %34 = load i32, ptr %33, align 4
  store i32 %34, ptr %6, align 4
  %35 = load i32, ptr %6, align 4
  %36 = and i32 %35, 1008
  %37 = and i32 %36, 64
  %38 = icmp ne i32 %37, 0
  br i1 %38, label %44, label %39

39:                                               ; preds = %30
  %40 = load ptr, ptr %7, align 8
  store ptr %40, ptr %4, align 8
  %41 = load ptr, ptr %4, align 8
  %42 = load i32, ptr %41, align 4
  %43 = add i32 %42, 1
  store i32 %43, ptr %41, align 4
  br label %44

44:                                               ; preds = %39, %30
  %45 = load ptr, ptr %7, align 8
  store ptr %45, ptr %14, align 8
  %46 = getelementptr inbounds %struct._zend_file_handle, ptr %12, i32 0, i32 2
  store ptr %45, ptr %46, align 8
  br label %47

47:                                               ; preds = %44, %26
  %48 = getelementptr inbounds %struct._zend_file_handle, ptr %12, i32 0, i32 2
  %49 = load ptr, ptr %48, align 8
  %50 = call ptr @zend_hash_add_empty_element(ptr noundef getelementptr inbounds (%struct._zend_executor_globals, ptr @executor_globals, i32 0, i32 6), ptr noundef %49)
  %51 = load ptr, ptr %14, align 8
  %52 = icmp ne ptr %51, null
  br i1 %52, label %53, label %81

53:                                               ; preds = %47
  %54 = load ptr, ptr %14, align 8
  store ptr %54, ptr %8, align 8
  store i8 0, ptr %9, align 1
  %55 = load ptr, ptr %8, align 8
  %56 = getelementptr inbounds %struct._zend_refcounted_h, ptr %55, i32 0, i32 1
  %57 = load i32, ptr %56, align 4
  store i32 %57, ptr %5, align 4
  %58 = load i32, ptr %5, align 4
  %59 = and i32 %58, 1008
  %60 = and i32 %59, 64
  %61 = icmp ne i32 %60, 0
  br i1 %61, label %80, label %62

62:                                               ; preds = %53
  %63 = load ptr, ptr %8, align 8
  store ptr %63, ptr %3, align 8
  %64 = load ptr, ptr %3, align 8
  %65 = load i32, ptr %64, align 4
  %66 = icmp ugt i32 %65, 0
  call void @llvm.assume(i1 %66)
  %67 = load ptr, ptr %3, align 8
  %68 = load i32, ptr %67, align 4
  %69 = add i32 %68, -1
  store i32 %69, ptr %67, align 4
  %70 = icmp eq i32 %69, 0
  br i1 %70, label %71, label %79

71:                                               ; preds = %62
  %72 = load i8, ptr %9, align 1
  %73 = trunc i8 %72 to i1
  br i1 %73, label %74, label %76

74:                                               ; preds = %71
  %75 = load ptr, ptr %8, align 8
  call void @free(ptr noundef %75) #12
  br label %78

76:                                               ; preds = %71
  %77 = load ptr, ptr %8, align 8
  call void @_efree(ptr noundef %77) #12
  br label %78

78:                                               ; preds = %76, %74
  br label %79

79:                                               ; preds = %78, %62
  br label %80

80:                                               ; preds = %79, %53
  br label %81

81:                                               ; preds = %80, %47
  br label %82

82:                                               ; preds = %81, %21, %2
  call void @zend_destroy_file_handle(ptr noundef %12)
  %83 = load ptr, ptr %13, align 8
  ret ptr %83
}