; Function Attrs: nounwind uwtable
define ptr @compile_filename(i32 noundef %0, ptr noundef %1) local_unnamed_addr #0 {
  %3 = alloca %struct._zend_file_handle, align 8
  call void @zend_stream_init_filename_ex(ptr noundef nonnull %3, ptr noundef %1) #16
  %4 = load ptr, ptr @zend_compile_file, align 8
  %5 = call ptr %4(ptr noundef nonnull %3, i32 noundef %0) #16
  %6 = icmp ne ptr %5, null
  %7 = load ptr, ptr %3, align 8
  %8 = icmp ne ptr %7, null
  %or.cond = select i1 %6, i1 %8, i1 false
  br i1 %or.cond, label %9, label %30

9:                                                ; preds = %2
  %10 = getelementptr inbounds i8, ptr %3, i64 48
  %11 = load ptr, ptr %10, align 8
  %.not = icmp eq ptr %11, null
  br i1 %.not, label %13, label %.thread

.thread:                                          ; preds = %9
  %12 = call ptr @zend_hash_add_empty_element(ptr noundef nonnull getelementptr inbounds (%struct._zend_executor_globals, ptr @executor_globals, i64 0, i32 6), ptr noundef nonnull %11) #16
  br label %30

13:                                               ; preds = %9
  %14 = getelementptr inbounds i8, ptr %1, i64 4
  %15 = load i32, ptr %14, align 4
  %16 = and i32 %15, 64
  %.not22 = icmp eq i32 %16, 0
  br i1 %.not22, label %17, label %20

17:                                               ; preds = %13
  %18 = load i32, ptr %1, align 4
  %19 = add i32 %18, 1
  store i32 %19, ptr %1, align 4
  br label %20

20:                                               ; preds = %17, %13
  store ptr %1, ptr %10, align 8
  %21 = call ptr @zend_hash_add_empty_element(ptr noundef nonnull getelementptr inbounds (%struct._zend_executor_globals, ptr @executor_globals, i64 0, i32 6), ptr noundef nonnull %1) #16
  %22 = load i32, ptr %14, align 4
  %23 = and i32 %22, 64
  %.not24 = icmp eq i32 %23, 0
  br i1 %.not24, label %24, label %30

24:                                               ; preds = %20
  %25 = load i32, ptr %1, align 4
  %26 = icmp ne i32 %25, 0
  call void @llvm.assume(i1 %26)
  %27 = add i32 %25, -1
  store i32 %27, ptr %1, align 4
  %28 = icmp eq i32 %27, 0
  br i1 %28, label %29, label %30

29:                                               ; preds = %24
  call void @_efree(ptr noundef nonnull %1) #16
  br label %30

30:                                               ; preds = %.thread, %24, %29, %20, %2
  call void @zend_destroy_file_handle(ptr noundef nonnull %3) #16
  ret ptr %5
}